ARM GAS  /tmp/ccWdfk1r.s 			page 1


   1              		.cpu cortex-m4
   2              		.eabi_attribute 27, 1
   3              		.eabi_attribute 28, 1
   4              		.eabi_attribute 20, 1
   5              		.eabi_attribute 21, 1
   6              		.eabi_attribute 23, 3
   7              		.eabi_attribute 24, 1
   8              		.eabi_attribute 25, 1
   9              		.eabi_attribute 26, 1
  10              		.eabi_attribute 30, 2
  11              		.eabi_attribute 34, 1
  12              		.eabi_attribute 18, 4
  13              		.file	"main.c"
  14              		.text
  15              	.Ltext0:
  16              		.cfi_sections	.debug_frame
  17              		.section	.text.__stack_chk_fail,"ax",%progbits
  18              		.align	1
  19              		.p2align 4,,15
  20              		.global	__stack_chk_fail
  21              		.syntax unified
  22              		.thumb
  23              		.thumb_func
  24              		.fpu fpv4-sp-d16
  25              		.type	__stack_chk_fail, %function
  26              	__stack_chk_fail:
  27              	.LFB261:
  28              		.file 1 "main.c"
  29              		.loc 1 450 0
  30              		.cfi_startproc
  31              		@ args = 0, pretend = 0, frame = 8
  32              		@ frame_needed = 0, uses_anonymous_args = 0
  33 0000 00B5     		push	{lr}
  34              		.cfi_def_cfa_offset 4
  35              		.cfi_offset 14, -4
  36 0002 084B     		ldr	r3, .L7
  37 0004 83B0     		sub	sp, sp, #12
  38              		.cfi_def_cfa_offset 16
  39              		.loc 1 450 0
  40 0006 1A68     		ldr	r2, [r3]
  41 0008 0192     		str	r2, [sp, #4]
  42              		.loc 1 451 0
  43 000a 019A     		ldr	r2, [sp, #4]
  44 000c 1B68     		ldr	r3, [r3]
  45 000e 9A42     		cmp	r2, r3
  46 0010 05D1     		bne	.L6
  47 0012 0548     		ldr	r0, .L7+4
  48              		.loc 1 452 0
  49 0014 03B0     		add	sp, sp, #12
  50              		.cfi_remember_state
  51              		.cfi_def_cfa_offset 4
  52              		@ sp needed
  53 0016 5DF804EB 		ldr	lr, [sp], #4
  54              		.cfi_restore 14
  55              		.cfi_def_cfa_offset 0
  56              		.loc 1 451 0
  57 001a FFF7FEBF 		b	chSysHalt
ARM GAS  /tmp/ccWdfk1r.s 			page 2


  58              	.LVL0:
  59              	.L6:
  60              		.cfi_restore_state
  61 001e FFF7FEFF 		bl	__stack_chk_fail
  62              	.LVL1:
  63              	.L8:
  64 0022 00BF     		.align	2
  65              	.L7:
  66 0024 00000000 		.word	__stack_chk_guard
  67 0028 00000000 		.word	.LC0
  68              		.cfi_endproc
  69              	.LFE261:
  70              		.size	__stack_chk_fail, .-__stack_chk_fail
  71              		.section	.text.stop,"ax",%progbits
  72              		.align	1
  73              		.p2align 4,,15
  74              		.global	stop
  75              		.syntax unified
  76              		.thumb
  77              		.thumb_func
  78              		.fpu fpv4-sp-d16
  79              		.type	stop, %function
  80              	stop:
  81              	.LFB262:
  82              		.loc 1 460 0
  83              		.cfi_startproc
  84              		@ args = 0, pretend = 0, frame = 8
  85              		@ frame_needed = 0, uses_anonymous_args = 0
  86 0000 10B5     		push	{r4, lr}
  87              		.cfi_def_cfa_offset 8
  88              		.cfi_offset 4, -8
  89              		.cfi_offset 14, -4
  90 0002 094C     		ldr	r4, .L14
  91 0004 82B0     		sub	sp, sp, #8
  92              		.cfi_def_cfa_offset 16
  93              		.loc 1 460 0
  94 0006 2368     		ldr	r3, [r4]
  95 0008 0193     		str	r3, [sp, #4]
  96              		.loc 1 461 0
  97 000a 0020     		movs	r0, #0
  98 000c FFF7FEFF 		bl	left_motor_set_speed
  99              	.LVL2:
 100              		.loc 1 462 0
 101 0010 019A     		ldr	r2, [sp, #4]
 102 0012 2368     		ldr	r3, [r4]
 103 0014 9A42     		cmp	r2, r3
 104 0016 05D1     		bne	.L13
 105 0018 0020     		movs	r0, #0
 106              		.loc 1 463 0
 107 001a 02B0     		add	sp, sp, #8
 108              		.cfi_remember_state
 109              		.cfi_def_cfa_offset 8
 110              		@ sp needed
 111 001c BDE81040 		pop	{r4, lr}
 112              		.cfi_restore 14
 113              		.cfi_restore 4
 114              		.cfi_def_cfa_offset 0
ARM GAS  /tmp/ccWdfk1r.s 			page 3


 115              		.loc 1 462 0
 116 0020 FFF7FEBF 		b	right_motor_set_speed
 117              	.LVL3:
 118              	.L13:
 119              		.cfi_restore_state
 120 0024 FFF7FEFF 		bl	__stack_chk_fail
 121              	.LVL4:
 122              	.L15:
 123              		.align	2
 124              	.L14:
 125 0028 00000000 		.word	__stack_chk_guard
 126              		.cfi_endproc
 127              	.LFE262:
 128              		.size	stop, .-stop
 129              		.section	.text.Turn_right,"ax",%progbits
 130              		.align	1
 131              		.p2align 4,,15
 132              		.global	Turn_right
 133              		.syntax unified
 134              		.thumb
 135              		.thumb_func
 136              		.fpu fpv4-sp-d16
 137              		.type	Turn_right, %function
 138              	Turn_right:
 139              	.LFB263:
 140              		.loc 1 466 0
 141              		.cfi_startproc
 142              		@ args = 0, pretend = 0, frame = 8
 143              		@ frame_needed = 0, uses_anonymous_args = 0
 144 0000 10B5     		push	{r4, lr}
 145              		.cfi_def_cfa_offset 8
 146              		.cfi_offset 4, -8
 147              		.cfi_offset 14, -4
 148 0002 0A4C     		ldr	r4, .L21
 149 0004 82B0     		sub	sp, sp, #8
 150              		.cfi_def_cfa_offset 16
 151              		.loc 1 466 0
 152 0006 2368     		ldr	r3, [r4]
 153 0008 0193     		str	r3, [sp, #4]
 154              		.loc 1 467 0
 155 000a 4FF4C870 		mov	r0, #400
 156 000e FFF7FEFF 		bl	left_motor_set_speed
 157              	.LVL5:
 158              		.loc 1 468 0
 159 0012 019A     		ldr	r2, [sp, #4]
 160 0014 2368     		ldr	r3, [r4]
 161 0016 9A42     		cmp	r2, r3
 162 0018 05D1     		bne	.L20
 163 001a 0548     		ldr	r0, .L21+4
 164              		.loc 1 469 0
 165 001c 02B0     		add	sp, sp, #8
 166              		.cfi_remember_state
 167              		.cfi_def_cfa_offset 8
 168              		@ sp needed
 169 001e BDE81040 		pop	{r4, lr}
 170              		.cfi_restore 14
 171              		.cfi_restore 4
ARM GAS  /tmp/ccWdfk1r.s 			page 4


 172              		.cfi_def_cfa_offset 0
 173              		.loc 1 468 0
 174 0022 FFF7FEBF 		b	right_motor_set_speed
 175              	.LVL6:
 176              	.L20:
 177              		.cfi_restore_state
 178 0026 FFF7FEFF 		bl	__stack_chk_fail
 179              	.LVL7:
 180              	.L22:
 181 002a 00BF     		.align	2
 182              	.L21:
 183 002c 00000000 		.word	__stack_chk_guard
 184 0030 70FEFFFF 		.word	-400
 185              		.cfi_endproc
 186              	.LFE263:
 187              		.size	Turn_right, .-Turn_right
 188              		.section	.text.Turn_left,"ax",%progbits
 189              		.align	1
 190              		.p2align 4,,15
 191              		.global	Turn_left
 192              		.syntax unified
 193              		.thumb
 194              		.thumb_func
 195              		.fpu fpv4-sp-d16
 196              		.type	Turn_left, %function
 197              	Turn_left:
 198              	.LFB264:
 199              		.loc 1 472 0
 200              		.cfi_startproc
 201              		@ args = 0, pretend = 0, frame = 8
 202              		@ frame_needed = 0, uses_anonymous_args = 0
 203 0000 10B5     		push	{r4, lr}
 204              		.cfi_def_cfa_offset 8
 205              		.cfi_offset 4, -8
 206              		.cfi_offset 14, -4
 207 0002 0A4C     		ldr	r4, .L28
 208              		.loc 1 473 0
 209 0004 0A48     		ldr	r0, .L28+4
 210              		.loc 1 472 0
 211 0006 2368     		ldr	r3, [r4]
 212 0008 82B0     		sub	sp, sp, #8
 213              		.cfi_def_cfa_offset 16
 214              		.loc 1 472 0
 215 000a 0193     		str	r3, [sp, #4]
 216              		.loc 1 473 0
 217 000c FFF7FEFF 		bl	left_motor_set_speed
 218              	.LVL8:
 219              		.loc 1 474 0
 220 0010 019A     		ldr	r2, [sp, #4]
 221 0012 2368     		ldr	r3, [r4]
 222 0014 9A42     		cmp	r2, r3
 223 0016 06D1     		bne	.L27
 224 0018 4FF4C870 		mov	r0, #400
 225              		.loc 1 475 0
 226 001c 02B0     		add	sp, sp, #8
 227              		.cfi_remember_state
 228              		.cfi_def_cfa_offset 8
ARM GAS  /tmp/ccWdfk1r.s 			page 5


 229              		@ sp needed
 230 001e BDE81040 		pop	{r4, lr}
 231              		.cfi_restore 14
 232              		.cfi_restore 4
 233              		.cfi_def_cfa_offset 0
 234              		.loc 1 474 0
 235 0022 FFF7FEBF 		b	right_motor_set_speed
 236              	.LVL9:
 237              	.L27:
 238              		.cfi_restore_state
 239 0026 FFF7FEFF 		bl	__stack_chk_fail
 240              	.LVL10:
 241              	.L29:
 242 002a 00BF     		.align	2
 243              	.L28:
 244 002c 00000000 		.word	__stack_chk_guard
 245 0030 70FEFFFF 		.word	-400
 246              		.cfi_endproc
 247              	.LFE264:
 248              		.size	Turn_left, .-Turn_left
 249              		.section	.text.reverse,"ax",%progbits
 250              		.align	1
 251              		.p2align 4,,15
 252              		.global	reverse
 253              		.syntax unified
 254              		.thumb
 255              		.thumb_func
 256              		.fpu fpv4-sp-d16
 257              		.type	reverse, %function
 258              	reverse:
 259              	.LFB265:
 260              		.loc 1 478 0
 261              		.cfi_startproc
 262              		@ args = 0, pretend = 0, frame = 8
 263              		@ frame_needed = 0, uses_anonymous_args = 0
 264 0000 10B5     		push	{r4, lr}
 265              		.cfi_def_cfa_offset 8
 266              		.cfi_offset 4, -8
 267              		.cfi_offset 14, -4
 268 0002 094C     		ldr	r4, .L35
 269              		.loc 1 479 0
 270 0004 0948     		ldr	r0, .L35+4
 271              		.loc 1 478 0
 272 0006 2368     		ldr	r3, [r4]
 273 0008 82B0     		sub	sp, sp, #8
 274              		.cfi_def_cfa_offset 16
 275              		.loc 1 478 0
 276 000a 0193     		str	r3, [sp, #4]
 277              		.loc 1 479 0
 278 000c FFF7FEFF 		bl	left_motor_set_speed
 279              	.LVL11:
 280              		.loc 1 480 0
 281 0010 019A     		ldr	r2, [sp, #4]
 282 0012 2368     		ldr	r3, [r4]
 283 0014 9A42     		cmp	r2, r3
 284 0016 05D1     		bne	.L34
 285 0018 0448     		ldr	r0, .L35+4
ARM GAS  /tmp/ccWdfk1r.s 			page 6


 286              		.loc 1 481 0
 287 001a 02B0     		add	sp, sp, #8
 288              		.cfi_remember_state
 289              		.cfi_def_cfa_offset 8
 290              		@ sp needed
 291 001c BDE81040 		pop	{r4, lr}
 292              		.cfi_restore 14
 293              		.cfi_restore 4
 294              		.cfi_def_cfa_offset 0
 295              		.loc 1 480 0
 296 0020 FFF7FEBF 		b	right_motor_set_speed
 297              	.LVL12:
 298              	.L34:
 299              		.cfi_restore_state
 300 0024 FFF7FEFF 		bl	__stack_chk_fail
 301              	.LVL13:
 302              	.L36:
 303              		.align	2
 304              	.L35:
 305 0028 00000000 		.word	__stack_chk_guard
 306 002c A8FDFFFF 		.word	-600
 307              		.cfi_endproc
 308              	.LFE265:
 309              		.size	reverse, .-reverse
 310              		.section	.text.forward,"ax",%progbits
 311              		.align	1
 312              		.p2align 4,,15
 313              		.global	forward
 314              		.syntax unified
 315              		.thumb
 316              		.thumb_func
 317              		.fpu fpv4-sp-d16
 318              		.type	forward, %function
 319              	forward:
 320              	.LFB266:
 321              		.loc 1 484 0
 322              		.cfi_startproc
 323              		@ args = 0, pretend = 0, frame = 8
 324              		@ frame_needed = 0, uses_anonymous_args = 0
 325 0000 10B5     		push	{r4, lr}
 326              		.cfi_def_cfa_offset 8
 327              		.cfi_offset 4, -8
 328              		.cfi_offset 14, -4
 329 0002 0A4C     		ldr	r4, .L42
 330 0004 82B0     		sub	sp, sp, #8
 331              		.cfi_def_cfa_offset 16
 332              		.loc 1 484 0
 333 0006 2368     		ldr	r3, [r4]
 334 0008 0193     		str	r3, [sp, #4]
 335              		.loc 1 485 0
 336 000a 4FF41670 		mov	r0, #600
 337 000e FFF7FEFF 		bl	left_motor_set_speed
 338              	.LVL14:
 339              		.loc 1 486 0
 340 0012 019A     		ldr	r2, [sp, #4]
 341 0014 2368     		ldr	r3, [r4]
 342 0016 9A42     		cmp	r2, r3
ARM GAS  /tmp/ccWdfk1r.s 			page 7


 343 0018 06D1     		bne	.L41
 344 001a 4FF41670 		mov	r0, #600
 345              		.loc 1 487 0
 346 001e 02B0     		add	sp, sp, #8
 347              		.cfi_remember_state
 348              		.cfi_def_cfa_offset 8
 349              		@ sp needed
 350 0020 BDE81040 		pop	{r4, lr}
 351              		.cfi_restore 14
 352              		.cfi_restore 4
 353              		.cfi_def_cfa_offset 0
 354              		.loc 1 486 0
 355 0024 FFF7FEBF 		b	right_motor_set_speed
 356              	.LVL15:
 357              	.L41:
 358              		.cfi_restore_state
 359 0028 FFF7FEFF 		bl	__stack_chk_fail
 360              	.LVL16:
 361              	.L43:
 362              		.align	2
 363              	.L42:
 364 002c 00000000 		.word	__stack_chk_guard
 365              		.cfi_endproc
 366              	.LFE266:
 367              		.size	forward, .-forward
 368              		.section	.text.Around,"ax",%progbits
 369              		.align	1
 370              		.p2align 4,,15
 371              		.global	Around
 372              		.syntax unified
 373              		.thumb
 374              		.thumb_func
 375              		.fpu fpv4-sp-d16
 376              		.type	Around, %function
 377              	Around:
 378              	.LFB267:
 379              		.loc 1 490 0
 380              		.cfi_startproc
 381              		@ args = 0, pretend = 0, frame = 8
 382              		@ frame_needed = 0, uses_anonymous_args = 0
 383 0000 10B5     		push	{r4, lr}
 384              		.cfi_def_cfa_offset 8
 385              		.cfi_offset 4, -8
 386              		.cfi_offset 14, -4
 387 0002 174C     		ldr	r4, .L49
 388 0004 82B0     		sub	sp, sp, #8
 389              		.cfi_def_cfa_offset 16
 390              		.loc 1 490 0
 391 0006 2368     		ldr	r3, [r4]
 392 0008 0193     		str	r3, [sp, #4]
 393              	.LBB70:
 394              	.LBB71:
 395              		.loc 1 461 0
 396 000a 0020     		movs	r0, #0
 397 000c FFF7FEFF 		bl	left_motor_set_speed
 398              	.LVL17:
 399              		.loc 1 462 0
ARM GAS  /tmp/ccWdfk1r.s 			page 8


 400 0010 0020     		movs	r0, #0
 401 0012 FFF7FEFF 		bl	right_motor_set_speed
 402              	.LVL18:
 403              	.LBE71:
 404              	.LBE70:
 405              	.LBB72:
 406              	.LBB73:
 407              		.loc 1 473 0
 408 0016 1348     		ldr	r0, .L49+4
 409 0018 FFF7FEFF 		bl	left_motor_set_speed
 410              	.LVL19:
 411              		.loc 1 474 0
 412 001c 4FF4C870 		mov	r0, #400
 413 0020 FFF7FEFF 		bl	right_motor_set_speed
 414              	.LVL20:
 415              	.LBE73:
 416              	.LBE72:
 417              	.LBB74:
 418              	.LBB75:
 419              		.loc 1 461 0
 420 0024 0020     		movs	r0, #0
 421 0026 FFF7FEFF 		bl	left_motor_set_speed
 422              	.LVL21:
 423              		.loc 1 462 0
 424 002a 0020     		movs	r0, #0
 425 002c FFF7FEFF 		bl	right_motor_set_speed
 426              	.LVL22:
 427              	.LBE75:
 428              	.LBE74:
 429              	.LBB76:
 430              	.LBB77:
 431              		.loc 1 473 0
 432 0030 0C48     		ldr	r0, .L49+4
 433 0032 FFF7FEFF 		bl	left_motor_set_speed
 434              	.LVL23:
 435              		.loc 1 474 0
 436 0036 4FF4C870 		mov	r0, #400
 437 003a FFF7FEFF 		bl	right_motor_set_speed
 438              	.LVL24:
 439              	.LBE77:
 440              	.LBE76:
 441              	.LBB78:
 442              	.LBB79:
 443              		.loc 1 485 0
 444 003e 4FF41670 		mov	r0, #600
 445 0042 FFF7FEFF 		bl	left_motor_set_speed
 446              	.LVL25:
 447              		.loc 1 486 0
 448 0046 019A     		ldr	r2, [sp, #4]
 449 0048 2368     		ldr	r3, [r4]
 450 004a 9A42     		cmp	r2, r3
 451 004c 06D1     		bne	.L48
 452 004e 4FF41670 		mov	r0, #600
 453              	.LBE79:
 454              	.LBE78:
 455              		.loc 1 496 0
 456 0052 02B0     		add	sp, sp, #8
ARM GAS  /tmp/ccWdfk1r.s 			page 9


 457              		.cfi_remember_state
 458              		.cfi_def_cfa_offset 8
 459              		@ sp needed
 460 0054 BDE81040 		pop	{r4, lr}
 461              		.cfi_restore 14
 462              		.cfi_restore 4
 463              		.cfi_def_cfa_offset 0
 464              	.LBB81:
 465              	.LBB80:
 466              		.loc 1 486 0
 467 0058 FFF7FEBF 		b	right_motor_set_speed
 468              	.LVL26:
 469              	.L48:
 470              		.cfi_restore_state
 471 005c FFF7FEFF 		bl	__stack_chk_fail
 472              	.LVL27:
 473              	.L50:
 474              		.align	2
 475              	.L49:
 476 0060 00000000 		.word	__stack_chk_guard
 477 0064 70FEFFFF 		.word	-400
 478              	.LBE80:
 479              	.LBE81:
 480              		.cfi_endproc
 481              	.LFE267:
 482              		.size	Around, .-Around
 483              		.section	.text.prox_vals,"ax",%progbits
 484              		.align	1
 485              		.p2align 4,,15
 486              		.global	prox_vals
 487              		.syntax unified
 488              		.thumb
 489              		.thumb_func
 490              		.fpu fpv4-sp-d16
 491              		.type	prox_vals, %function
 492              	prox_vals:
 493              	.LFB268:
 494              		.loc 1 500 0
 495              		.cfi_startproc
 496              		@ args = 0, pretend = 0, frame = 8
 497              		@ frame_needed = 0, uses_anonymous_args = 0
 498 0000 70B5     		push	{r4, r5, r6, lr}
 499              		.cfi_def_cfa_offset 16
 500              		.cfi_offset 4, -16
 501              		.cfi_offset 5, -12
 502              		.cfi_offset 6, -8
 503              		.cfi_offset 14, -4
 504 0002 0B4E     		ldr	r6, .L57
 505 0004 0B4D     		ldr	r5, .L57+4
 506 0006 3368     		ldr	r3, [r6]
 507 0008 82B0     		sub	sp, sp, #8
 508              		.cfi_def_cfa_offset 24
 509              	.LBB82:
 510              		.loc 1 502 0
 511 000a 0024     		movs	r4, #0
 512              	.LBE82:
 513              		.loc 1 500 0
ARM GAS  /tmp/ccWdfk1r.s 			page 10


 514 000c 0193     		str	r3, [sp, #4]
 515              	.LVL28:
 516              	.L52:
 517              	.LBB83:
 518              		.loc 1 505 0 discriminator 3
 519 000e 2046     		mov	r0, r4
 520 0010 FFF7FEFF 		bl	get_prox
 521              	.LVL29:
 522              		.loc 1 502 0 discriminator 3
 523 0014 0134     		adds	r4, r4, #1
 524              	.LVL30:
 525 0016 082C     		cmp	r4, #8
 526              		.loc 1 505 0 discriminator 3
 527 0018 45F8040F 		str	r0, [r5, #4]!
 528              		.loc 1 502 0 discriminator 3
 529 001c F7D1     		bne	.L52
 530              	.LBE83:
 531              		.loc 1 508 0
 532 001e 019A     		ldr	r2, [sp, #4]
 533 0020 3368     		ldr	r3, [r6]
 534 0022 9A42     		cmp	r2, r3
 535 0024 01D1     		bne	.L56
 536 0026 02B0     		add	sp, sp, #8
 537              		.cfi_remember_state
 538              		.cfi_def_cfa_offset 16
 539              		@ sp needed
 540 0028 70BD     		pop	{r4, r5, r6, pc}
 541              	.LVL31:
 542              	.L56:
 543              		.cfi_restore_state
 544 002a FFF7FEFF 		bl	__stack_chk_fail
 545              	.LVL32:
 546              	.L58:
 547 002e 00BF     		.align	2
 548              	.L57:
 549 0030 00000000 		.word	__stack_chk_guard
 550 0034 FCFFFFFF 		.word	.LANCHOR0-4
 551              		.cfi_endproc
 552              	.LFE268:
 553              		.size	prox_vals, .-prox_vals
 554              		.section	.text.dist_vals,"ax",%progbits
 555              		.align	1
 556              		.p2align 4,,15
 557              		.global	dist_vals
 558              		.syntax unified
 559              		.thumb
 560              		.thumb_func
 561              		.fpu fpv4-sp-d16
 562              		.type	dist_vals, %function
 563              	dist_vals:
 564              	.LFB269:
 565              		.loc 1 512 0
 566              		.cfi_startproc
 567              		@ args = 0, pretend = 0, frame = 8
 568              		@ frame_needed = 0, uses_anonymous_args = 0
 569 0000 10B5     		push	{r4, lr}
 570              		.cfi_def_cfa_offset 8
ARM GAS  /tmp/ccWdfk1r.s 			page 11


 571              		.cfi_offset 4, -8
 572              		.cfi_offset 14, -4
 573 0002 084C     		ldr	r4, .L63
 574 0004 82B0     		sub	sp, sp, #8
 575              		.cfi_def_cfa_offset 16
 576              		.loc 1 512 0
 577 0006 2368     		ldr	r3, [r4]
 578 0008 0193     		str	r3, [sp, #4]
 579              		.loc 1 513 0
 580 000a FFF7FEFF 		bl	VL53L0X_get_dist_mm
 581              	.LVL33:
 582              		.loc 1 514 0
 583 000e 019A     		ldr	r2, [sp, #4]
 584 0010 2368     		ldr	r3, [r4]
 585              		.loc 1 513 0
 586 0012 0549     		ldr	r1, .L63+4
 587              		.loc 1 514 0
 588 0014 9A42     		cmp	r2, r3
 589              		.loc 1 513 0
 590 0016 0880     		strh	r0, [r1]	@ movhi
 591              		.loc 1 514 0
 592 0018 01D1     		bne	.L62
 593 001a 02B0     		add	sp, sp, #8
 594              		.cfi_remember_state
 595              		.cfi_def_cfa_offset 8
 596              		@ sp needed
 597 001c 10BD     		pop	{r4, pc}
 598              	.L62:
 599              		.cfi_restore_state
 600 001e FFF7FEFF 		bl	__stack_chk_fail
 601              	.LVL34:
 602              	.L64:
 603 0022 00BF     		.align	2
 604              	.L63:
 605 0024 00000000 		.word	__stack_chk_guard
 606 0028 00000000 		.word	.LANCHOR1
 607              		.cfi_endproc
 608              	.LFE269:
 609              		.size	dist_vals, .-dist_vals
 610              		.section	.text.turn_test,"ax",%progbits
 611              		.align	1
 612              		.p2align 4,,15
 613              		.global	turn_test
 614              		.syntax unified
 615              		.thumb
 616              		.thumb_func
 617              		.fpu fpv4-sp-d16
 618              		.type	turn_test, %function
 619              	turn_test:
 620              	.LFB270:
 621              		.loc 1 517 0
 622              		.cfi_startproc
 623              		@ args = 0, pretend = 0, frame = 8
 624              		@ frame_needed = 0, uses_anonymous_args = 0
 625              	.LVL35:
 626 0000 10B5     		push	{r4, lr}
 627              		.cfi_def_cfa_offset 8
ARM GAS  /tmp/ccWdfk1r.s 			page 12


 628              		.cfi_offset 4, -8
 629              		.cfi_offset 14, -4
 630              		.loc 1 518 0
 631 0002 544B     		ldr	r3, .L94
 632              		.loc 1 517 0
 633 0004 544C     		ldr	r4, .L94+4
 634              		.loc 1 518 0
 635 0006 1A68     		ldr	r2, [r3]
 636              		.loc 1 517 0
 637 0008 2168     		ldr	r1, [r4]
 638 000a 82B0     		sub	sp, sp, #8
 639              		.cfi_def_cfa_offset 16
 640              		.loc 1 518 0
 641 000c 8242     		cmp	r2, r0
 642              		.loc 1 517 0
 643 000e 0191     		str	r1, [sp, #4]
 644              		.loc 1 518 0
 645 0010 2CDB     		blt	.L66
 646              		.loc 1 518 0 is_stmt 0 discriminator 1
 647 0012 5A68     		ldr	r2, [r3, #4]
 648 0014 B2F5967F 		cmp	r2, #300
 649 0018 48DA     		bge	.L89
 650 001a D3E90612 		ldrd	r1, r2, [r3, #24]
 651              		.loc 1 526 0 is_stmt 1
 652 001e B1F5967F 		cmp	r1, #300
 653 0022 28DA     		bge	.L82
 654              		.loc 1 536 0 discriminator 1
 655 0024 9042     		cmp	r0, r2
 656 0026 28DC     		bgt	.L70
 657              	.LBB84:
 658              	.LBB85:
 659              		.loc 1 461 0
 660 0028 0020     		movs	r0, #0
 661              	.LVL36:
 662 002a FFF7FEFF 		bl	left_motor_set_speed
 663              	.LVL37:
 664              		.loc 1 462 0
 665 002e 0020     		movs	r0, #0
 666 0030 FFF7FEFF 		bl	right_motor_set_speed
 667              	.LVL38:
 668              	.LBE85:
 669              	.LBE84:
 670              		.loc 1 539 0
 671 0034 4FF4FA70 		mov	r0, #500
 672 0038 FFF7FEFF 		bl	chThdSleep
 673              	.LVL39:
 674              	.LBB86:
 675              	.LBB87:
 676              		.loc 1 479 0
 677 003c 4748     		ldr	r0, .L94+8
 678 003e FFF7FEFF 		bl	left_motor_set_speed
 679              	.LVL40:
 680              		.loc 1 480 0
 681 0042 4648     		ldr	r0, .L94+8
 682 0044 FFF7FEFF 		bl	right_motor_set_speed
 683              	.LVL41:
 684              	.LBE87:
ARM GAS  /tmp/ccWdfk1r.s 			page 13


 685              	.LBE86:
 686              		.loc 1 541 0
 687 0048 4FF4FA70 		mov	r0, #500
 688 004c FFF7FEFF 		bl	chThdSleep
 689              	.LVL42:
 690              	.LBB88:
 691              	.LBB89:
 692              		.loc 1 467 0
 693 0050 4FF4C870 		mov	r0, #400
 694 0054 FFF7FEFF 		bl	left_motor_set_speed
 695              	.LVL43:
 696              		.loc 1 468 0
 697 0058 019A     		ldr	r2, [sp, #4]
 698 005a 2368     		ldr	r3, [r4]
 699 005c 9A42     		cmp	r2, r3
 700 005e 23D1     		bne	.L86
 701 0060 3F48     		ldr	r0, .L94+12
 702              	.LBE89:
 703              	.LBE88:
 704              		.loc 1 565 0
 705 0062 02B0     		add	sp, sp, #8
 706              		.cfi_remember_state
 707              		.cfi_def_cfa_offset 8
 708              		@ sp needed
 709 0064 BDE81040 		pop	{r4, lr}
 710              		.cfi_restore 14
 711              		.cfi_restore 4
 712              		.cfi_def_cfa_offset 0
 713              	.LBB90:
 714              	.LBB91:
 715              		.loc 1 462 0
 716 0068 FFF7FEBF 		b	right_motor_set_speed
 717              	.LVL44:
 718              	.L66:
 719              		.cfi_restore_state
 720              	.LBE91:
 721              	.LBE90:
 722              		.loc 1 526 0
 723 006c 9A69     		ldr	r2, [r3, #24]
 724 006e B2F5967F 		cmp	r2, #300
 725 0072 02DB     		blt	.L70
 726 0074 DA69     		ldr	r2, [r3, #28]
 727              	.L82:
 728              		.loc 1 526 0 is_stmt 0 discriminator 1
 729 0076 9042     		cmp	r0, r2
 730 0078 4CDD     		ble	.L90
 731              	.L70:
 732              		.loc 1 543 0 is_stmt 1
 733 007a 9A68     		ldr	r2, [r3, #8]
 734 007c 8242     		cmp	r2, r0
 735 007e 3ADA     		bge	.L91
 736              		.loc 1 550 0
 737 0080 5B69     		ldr	r3, [r3, #20]
 738 0082 8342     		cmp	r3, r0
 739 0084 56DA     		bge	.L92
 740              		.loc 1 557 0
 741 0086 374B     		ldr	r3, .L94+16
ARM GAS  /tmp/ccWdfk1r.s 			page 14


 742 0088 1B88     		ldrh	r3, [r3]
 743 008a A3F13202 		sub	r2, r3, #50
 744 008e 322A     		cmp	r2, #50
 745 0090 21D9     		bls	.L87
 746              		.loc 1 560 0
 747 0092 282B     		cmp	r3, #40
 748 0094 45D9     		bls	.L93
 749              	.LBB94:
 750              	.LBB92:
 751              		.loc 1 461 0
 752 0096 0020     		movs	r0, #0
 753              	.LVL45:
 754 0098 FFF7FEFF 		bl	left_motor_set_speed
 755              	.LVL46:
 756              		.loc 1 462 0
 757 009c 019A     		ldr	r2, [sp, #4]
 758 009e 2368     		ldr	r3, [r4]
 759 00a0 9A42     		cmp	r2, r3
 760 00a2 08BF     		it	eq
 761 00a4 0020     		moveq	r0, #0
 762 00a6 21D0     		beq	.L85
 763              	.L86:
 764 00a8 FFF7FEFF 		bl	__stack_chk_fail
 765              	.LVL47:
 766              	.L89:
 767              	.LBE92:
 768              	.LBE94:
 769              	.LBB95:
 770              	.LBB96:
 771              		.loc 1 461 0
 772 00ac 0020     		movs	r0, #0
 773              	.LVL48:
 774 00ae FFF7FEFF 		bl	left_motor_set_speed
 775              	.LVL49:
 776              		.loc 1 462 0
 777 00b2 0020     		movs	r0, #0
 778 00b4 FFF7FEFF 		bl	right_motor_set_speed
 779              	.LVL50:
 780              	.LBE96:
 781              	.LBE95:
 782              		.loc 1 521 0
 783 00b8 4FF4FA70 		mov	r0, #500
 784 00bc FFF7FEFF 		bl	chThdSleep
 785              	.LVL51:
 786              	.L88:
 787              	.LBB97:
 788              	.LBB98:
 789              		.loc 1 467 0
 790 00c0 4FF4C870 		mov	r0, #400
 791 00c4 FFF7FEFF 		bl	left_motor_set_speed
 792              	.LVL52:
 793              		.loc 1 468 0
 794 00c8 2548     		ldr	r0, .L94+12
 795 00ca FFF7FEFF 		bl	right_motor_set_speed
 796              	.LVL53:
 797              	.LBE98:
 798              	.LBE97:
ARM GAS  /tmp/ccWdfk1r.s 			page 15


 799              		.loc 1 533 0
 800 00ce 4FF4FA70 		mov	r0, #500
 801 00d2 FFF7FEFF 		bl	chThdSleep
 802              	.LVL54:
 803              	.L87:
 804              	.LBB99:
 805              	.LBB100:
 806              		.loc 1 485 0
 807 00d6 4FF41670 		mov	r0, #600
 808 00da FFF7FEFF 		bl	left_motor_set_speed
 809              	.LVL55:
 810              		.loc 1 486 0
 811 00de 019A     		ldr	r2, [sp, #4]
 812 00e0 2368     		ldr	r3, [r4]
 813 00e2 9A42     		cmp	r2, r3
 814 00e4 08BF     		it	eq
 815 00e6 4FF41670 		moveq	r0, #600
 816 00ea DDD1     		bne	.L86
 817              	.L85:
 818              	.LBE100:
 819              	.LBE99:
 820              		.loc 1 565 0
 821 00ec 02B0     		add	sp, sp, #8
 822              		.cfi_remember_state
 823              		.cfi_def_cfa_offset 8
 824              		@ sp needed
 825 00ee BDE81040 		pop	{r4, lr}
 826              		.cfi_restore 14
 827              		.cfi_restore 4
 828              		.cfi_def_cfa_offset 0
 829              	.LBB101:
 830              	.LBB93:
 831              		.loc 1 462 0
 832 00f2 FFF7FEBF 		b	right_motor_set_speed
 833              	.LVL56:
 834              	.L91:
 835              		.cfi_restore_state
 836              	.LBE93:
 837              	.LBE101:
 838              		.loc 1 546 0
 839 00f6 4FF4FA70 		mov	r0, #500
 840              	.LVL57:
 841 00fa FFF7FEFF 		bl	chThdSleep
 842              	.LVL58:
 843              	.LBB102:
 844              	.LBB103:
 845              		.loc 1 467 0
 846 00fe 4FF4C870 		mov	r0, #400
 847 0102 FFF7FEFF 		bl	left_motor_set_speed
 848              	.LVL59:
 849              		.loc 1 468 0
 850 0106 1648     		ldr	r0, .L94+12
 851 0108 FFF7FEFF 		bl	right_motor_set_speed
 852              	.LVL60:
 853              	.LBE103:
 854              	.LBE102:
 855              		.loc 1 548 0
ARM GAS  /tmp/ccWdfk1r.s 			page 16


 856 010c C820     		movs	r0, #200
 857 010e FFF7FEFF 		bl	chThdSleep
 858              	.LVL61:
 859 0112 E0E7     		b	.L87
 860              	.LVL62:
 861              	.L90:
 862              	.LBB104:
 863              	.LBB105:
 864              		.loc 1 461 0
 865 0114 0020     		movs	r0, #0
 866              	.LVL63:
 867 0116 FFF7FEFF 		bl	left_motor_set_speed
 868              	.LVL64:
 869              		.loc 1 462 0
 870 011a 0020     		movs	r0, #0
 871 011c FFF7FEFF 		bl	right_motor_set_speed
 872              	.LVL65:
 873 0120 CEE7     		b	.L88
 874              	.LVL66:
 875              	.L93:
 876              	.LBE105:
 877              	.LBE104:
 878              	.LBB106:
 879              	.LBB107:
 880              		.loc 1 479 0
 881 0122 0E48     		ldr	r0, .L94+8
 882              	.LVL67:
 883 0124 FFF7FEFF 		bl	left_motor_set_speed
 884              	.LVL68:
 885              		.loc 1 480 0
 886 0128 019A     		ldr	r2, [sp, #4]
 887 012a 2368     		ldr	r3, [r4]
 888 012c 9A42     		cmp	r2, r3
 889 012e BBD1     		bne	.L86
 890 0130 0A48     		ldr	r0, .L94+8
 891 0132 DBE7     		b	.L85
 892              	.LVL69:
 893              	.L92:
 894              	.LBE107:
 895              	.LBE106:
 896              		.loc 1 553 0
 897 0134 4FF4FA70 		mov	r0, #500
 898              	.LVL70:
 899 0138 FFF7FEFF 		bl	chThdSleep
 900              	.LVL71:
 901              	.LBB108:
 902              	.LBB109:
 903              		.loc 1 473 0
 904 013c 0848     		ldr	r0, .L94+12
 905 013e FFF7FEFF 		bl	left_motor_set_speed
 906              	.LVL72:
 907              		.loc 1 474 0
 908 0142 4FF4C870 		mov	r0, #400
 909 0146 FFF7FEFF 		bl	right_motor_set_speed
 910              	.LVL73:
 911              	.LBE109:
 912              	.LBE108:
ARM GAS  /tmp/ccWdfk1r.s 			page 17


 913              		.loc 1 555 0
 914 014a C820     		movs	r0, #200
 915 014c FFF7FEFF 		bl	chThdSleep
 916              	.LVL74:
 917 0150 C1E7     		b	.L87
 918              	.L95:
 919 0152 00BF     		.align	2
 920              	.L94:
 921 0154 00000000 		.word	.LANCHOR0
 922 0158 00000000 		.word	__stack_chk_guard
 923 015c A8FDFFFF 		.word	-600
 924 0160 70FEFFFF 		.word	-400
 925 0164 00000000 		.word	.LANCHOR1
 926              		.cfi_endproc
 927              	.LFE270:
 928              		.size	turn_test, .-turn_test
 929              		.section	.text.follow,"ax",%progbits
 930              		.align	1
 931              		.p2align 4,,15
 932              		.global	follow
 933              		.syntax unified
 934              		.thumb
 935              		.thumb_func
 936              		.fpu fpv4-sp-d16
 937              		.type	follow, %function
 938              	follow:
 939              	.LFB271:
 940              		.loc 1 570 0
 941              		.cfi_startproc
 942              		@ args = 0, pretend = 0, frame = 8
 943              		@ frame_needed = 0, uses_anonymous_args = 0
 944 0000 10B5     		push	{r4, lr}
 945              		.cfi_def_cfa_offset 8
 946              		.cfi_offset 4, -8
 947              		.cfi_offset 14, -4
 948              		.loc 1 571 0
 949 0002 3D4B     		ldr	r3, .L125
 950              		.loc 1 570 0
 951 0004 3D4C     		ldr	r4, .L125+4
 952              		.loc 1 571 0
 953 0006 1B88     		ldrh	r3, [r3]
 954              		.loc 1 570 0
 955 0008 2268     		ldr	r2, [r4]
 956 000a 82B0     		sub	sp, sp, #8
 957              		.cfi_def_cfa_offset 16
 958              		.loc 1 570 0
 959 000c 0192     		str	r2, [sp, #4]
 960              		.loc 1 571 0
 961 000e A3F14102 		sub	r2, r3, #65
 962 0012 872A     		cmp	r2, #135
 963 0014 29D9     		bls	.L118
 964              		.loc 1 574 0
 965 0016 1E2B     		cmp	r3, #30
 966 0018 1AD9     		bls	.L119
 967              		.loc 1 578 0
 968 001a 394B     		ldr	r3, .L125+8
 969 001c 5A68     		ldr	r2, [r3, #4]
ARM GAS  /tmp/ccWdfk1r.s 			page 18


 970 001e 772A     		cmp	r2, #119
 971 0020 3DDC     		bgt	.L120
 972              		.loc 1 583 0
 973 0022 9A69     		ldr	r2, [r3, #24]
 974 0024 772A     		cmp	r2, #119
 975 0026 4CDC     		bgt	.L121
 976              	.LBB130:
 977              	.LBB131:
 978              		.loc 1 587 0
 979 0028 9A68     		ldr	r2, [r3, #8]
 980 002a 772A     		cmp	r2, #119
 981 002c 2DDC     		bgt	.L122
 982              		.loc 1 591 0
 983 002e DA68     		ldr	r2, [r3, #12]
 984 0030 772A     		cmp	r2, #119
 985 0032 57DC     		bgt	.L123
 986              		.loc 1 595 0
 987 0034 1B69     		ldr	r3, [r3, #16]
 988 0036 772B     		cmp	r3, #119
 989 0038 49DC     		bgt	.L124
 990              	.LBB132:
 991              	.LBB133:
 992              		.loc 1 461 0
 993 003a 0020     		movs	r0, #0
 994 003c FFF7FEFF 		bl	left_motor_set_speed
 995              	.LVL75:
 996              		.loc 1 462 0
 997 0040 019A     		ldr	r2, [sp, #4]
 998 0042 2368     		ldr	r3, [r4]
 999 0044 9A42     		cmp	r2, r3
 1000 0046 08BF     		it	eq
 1001 0048 0020     		moveq	r0, #0
 1002 004a 09D0     		beq	.L114
 1003              	.L115:
 1004 004c FFF7FEFF 		bl	__stack_chk_fail
 1005              	.LVL76:
 1006              	.L119:
 1007              	.LBE133:
 1008              	.LBE132:
 1009              	.LBE131:
 1010              	.LBE130:
 1011              	.LBB141:
 1012              	.LBB142:
 1013              		.loc 1 479 0
 1014 0050 2C48     		ldr	r0, .L125+12
 1015 0052 FFF7FEFF 		bl	left_motor_set_speed
 1016              	.LVL77:
 1017              		.loc 1 480 0
 1018 0056 019A     		ldr	r2, [sp, #4]
 1019 0058 2368     		ldr	r3, [r4]
 1020 005a 9A42     		cmp	r2, r3
 1021 005c F6D1     		bne	.L115
 1022 005e 2948     		ldr	r0, .L125+12
 1023              	.L114:
 1024              	.LBE142:
 1025              	.LBE141:
 1026              		.loc 1 601 0
ARM GAS  /tmp/ccWdfk1r.s 			page 19


 1027 0060 02B0     		add	sp, sp, #8
 1028              		.cfi_remember_state
 1029              		.cfi_def_cfa_offset 8
 1030              		@ sp needed
 1031 0062 BDE81040 		pop	{r4, lr}
 1032              		.cfi_restore 14
 1033              		.cfi_restore 4
 1034              		.cfi_def_cfa_offset 0
 1035              	.LBB143:
 1036              	.LBB138:
 1037              	.LBB136:
 1038              	.LBB134:
 1039              		.loc 1 462 0
 1040 0066 FFF7FEBF 		b	right_motor_set_speed
 1041              	.LVL78:
 1042              	.L118:
 1043              		.cfi_restore_state
 1044              	.LBE134:
 1045              	.LBE136:
 1046              	.LBE138:
 1047              	.LBE143:
 1048              	.LBB144:
 1049              	.LBB145:
 1050              		.loc 1 485 0
 1051 006a 4FF41670 		mov	r0, #600
 1052 006e FFF7FEFF 		bl	left_motor_set_speed
 1053              	.LVL79:
 1054              		.loc 1 486 0
 1055 0072 019A     		ldr	r2, [sp, #4]
 1056 0074 2368     		ldr	r3, [r4]
 1057 0076 9A42     		cmp	r2, r3
 1058 0078 08BF     		it	eq
 1059 007a 4FF41670 		moveq	r0, #600
 1060 007e E5D1     		bne	.L115
 1061              	.LBE145:
 1062              	.LBE144:
 1063              		.loc 1 601 0
 1064 0080 02B0     		add	sp, sp, #8
 1065              		.cfi_remember_state
 1066              		.cfi_def_cfa_offset 8
 1067              		@ sp needed
 1068 0082 BDE81040 		pop	{r4, lr}
 1069              		.cfi_restore 14
 1070              		.cfi_restore 4
 1071              		.cfi_def_cfa_offset 0
 1072              	.LBB146:
 1073              	.LBB139:
 1074              	.LBB137:
 1075              	.LBB135:
 1076              		.loc 1 462 0
 1077 0086 FFF7FEBF 		b	right_motor_set_speed
 1078              	.LVL80:
 1079              	.L122:
 1080              		.cfi_restore_state
 1081              	.LBE135:
 1082              	.LBE137:
 1083              		.loc 1 589 0
ARM GAS  /tmp/ccWdfk1r.s 			page 20


 1084 008a 4FF4AF70 		mov	r0, #350
 1085 008e FFF7FEFF 		bl	left_motor_set_speed
 1086              	.LVL81:
 1087              		.loc 1 590 0
 1088 0092 019A     		ldr	r2, [sp, #4]
 1089 0094 2368     		ldr	r3, [r4]
 1090 0096 9A42     		cmp	r2, r3
 1091 0098 D8D1     		bne	.L115
 1092 009a 1B48     		ldr	r0, .L125+16
 1093 009c E0E7     		b	.L114
 1094              	.L120:
 1095              	.LBE139:
 1096              	.LBE146:
 1097              	.LBB147:
 1098              	.LBB148:
 1099              		.loc 1 467 0
 1100 009e 4FF4C870 		mov	r0, #400
 1101 00a2 FFF7FEFF 		bl	left_motor_set_speed
 1102              	.LVL82:
 1103              		.loc 1 468 0
 1104 00a6 1948     		ldr	r0, .L125+20
 1105              	.L116:
 1106              	.LBE148:
 1107              	.LBE147:
 1108              	.LBB149:
 1109              	.LBB150:
 1110              		.loc 1 474 0
 1111 00a8 FFF7FEFF 		bl	right_motor_set_speed
 1112              	.LVL83:
 1113              	.LBE150:
 1114              	.LBE149:
 1115              		.loc 1 586 0
 1116 00ac 019A     		ldr	r2, [sp, #4]
 1117 00ae 2368     		ldr	r3, [r4]
 1118 00b0 9A42     		cmp	r2, r3
 1119 00b2 CBD1     		bne	.L115
 1120 00b4 4FF49670 		mov	r0, #300
 1121              		.loc 1 601 0
 1122 00b8 02B0     		add	sp, sp, #8
 1123              		.cfi_remember_state
 1124              		.cfi_def_cfa_offset 8
 1125              		@ sp needed
 1126 00ba BDE81040 		pop	{r4, lr}
 1127              		.cfi_restore 14
 1128              		.cfi_restore 4
 1129              		.cfi_def_cfa_offset 0
 1130              		.loc 1 586 0
 1131 00be FFF7FEBF 		b	chThdSleep
 1132              	.LVL84:
 1133              	.L121:
 1134              		.cfi_restore_state
 1135              	.LBB152:
 1136              	.LBB151:
 1137              		.loc 1 473 0
 1138 00c2 1248     		ldr	r0, .L125+20
 1139 00c4 FFF7FEFF 		bl	left_motor_set_speed
 1140              	.LVL85:
ARM GAS  /tmp/ccWdfk1r.s 			page 21


 1141              		.loc 1 474 0
 1142 00c8 4FF4C870 		mov	r0, #400
 1143 00cc ECE7     		b	.L116
 1144              	.L124:
 1145              	.LBE151:
 1146              	.LBE152:
 1147              	.LBB153:
 1148              	.LBB140:
 1149              		.loc 1 597 0
 1150 00ce 1048     		ldr	r0, .L125+24
 1151 00d0 FFF7FEFF 		bl	left_motor_set_speed
 1152              	.LVL86:
 1153              		.loc 1 598 0
 1154 00d4 019A     		ldr	r2, [sp, #4]
 1155 00d6 2368     		ldr	r3, [r4]
 1156 00d8 9A42     		cmp	r2, r3
 1157 00da 08BF     		it	eq
 1158 00dc 4FF4FA70 		moveq	r0, #500
 1159 00e0 BED0     		beq	.L114
 1160 00e2 B3E7     		b	.L115
 1161              	.L123:
 1162              		.loc 1 593 0
 1163 00e4 4FF4FA70 		mov	r0, #500
 1164 00e8 FFF7FEFF 		bl	left_motor_set_speed
 1165              	.LVL87:
 1166              		.loc 1 594 0
 1167 00ec 019A     		ldr	r2, [sp, #4]
 1168 00ee 2368     		ldr	r3, [r4]
 1169 00f0 9A42     		cmp	r2, r3
 1170 00f2 ABD1     		bne	.L115
 1171 00f4 0648     		ldr	r0, .L125+24
 1172 00f6 B3E7     		b	.L114
 1173              	.L126:
 1174              		.align	2
 1175              	.L125:
 1176 00f8 00000000 		.word	.LANCHOR1
 1177 00fc 00000000 		.word	__stack_chk_guard
 1178 0100 00000000 		.word	.LANCHOR0
 1179 0104 A8FDFFFF 		.word	-600
 1180 0108 A2FEFFFF 		.word	-350
 1181 010c 70FEFFFF 		.word	-400
 1182 0110 0CFEFFFF 		.word	-500
 1183              	.LBE140:
 1184              	.LBE153:
 1185              		.cfi_endproc
 1186              	.LFE271:
 1187              		.size	follow, .-follow
 1188              		.section	.text.startup.main,"ax",%progbits
 1189              		.align	1
 1190              		.p2align 4,,15
 1191              		.global	main
 1192              		.syntax unified
 1193              		.thumb
 1194              		.thumb_func
 1195              		.fpu fpv4-sp-d16
 1196              		.type	main, %function
 1197              	main:
ARM GAS  /tmp/ccWdfk1r.s 			page 22


 1198              	.LFB260:
 1199              		.loc 1 400 0
 1200              		.cfi_startproc
 1201              		@ args = 0, pretend = 0, frame = 8
 1202              		@ frame_needed = 0, uses_anonymous_args = 0
 1203 0000 70B5     		push	{r4, r5, r6, lr}
 1204              		.cfi_def_cfa_offset 16
 1205              		.cfi_offset 4, -16
 1206              		.cfi_offset 5, -12
 1207              		.cfi_offset 6, -8
 1208              		.cfi_offset 14, -4
 1209 0002 184B     		ldr	r3, .L133
 1210 0004 184E     		ldr	r6, .L133+4
 1211 0006 1B68     		ldr	r3, [r3]
 1212 0008 82B0     		sub	sp, sp, #8
 1213              		.cfi_def_cfa_offset 24
 1214              		.loc 1 400 0
 1215 000a 0193     		str	r3, [sp, #4]
 1216              		.loc 1 401 0
 1217 000c FFF7FEFF 		bl	halInit
 1218              	.LVL88:
 1219              		.loc 1 402 0
 1220 0010 FFF7FEFF 		bl	chSysInit
 1221              	.LVL89:
 1222              		.loc 1 403 0
 1223 0014 FFF7FEFF 		bl	mpu_init
 1224              	.LVL90:
 1225              		.loc 1 405 0
 1226 0018 FFF7FEFF 		bl	usb_start
 1227              	.LVL91:
 1228              		.loc 1 407 0
 1229 001c FFF7FEFF 		bl	serial_start
 1230              	.LVL92:
 1231              		.loc 1 410 0
 1232 0020 124A     		ldr	r2, .L133+8
 1233 0022 1349     		ldr	r1, .L133+12
 1234 0024 1348     		ldr	r0, .L133+16
 1235 0026 FFF7FEFF 		bl	messagebus_init
 1236              	.LVL93:
 1237              		.loc 1 413 0
 1238 002a FFF7FEFF 		bl	proximity_start
 1239              	.LVL94:
 1240              		.loc 1 416 0
 1241 002e FFF7FEFF 		bl	calibrate_ir
 1242              	.LVL95:
 1243              		.loc 1 419 0
 1244 0032 FFF7FEFF 		bl	VL53L0X_start
 1245              	.LVL96:
 1246              		.loc 1 422 0
 1247 0036 FFF7FEFF 		bl	motors_init
 1248              	.LVL97:
 1249              	.L129:
 1250              	.LBB154:
 1251              		.loc 1 430 0 discriminator 1
 1252 003a 4FF4FA70 		mov	r0, #500
 1253 003e FFF7FEFF 		bl	chThdSleep
 1254              	.LVL98:
ARM GAS  /tmp/ccWdfk1r.s 			page 23


 1255 0042 0D4D     		ldr	r5, .L133+20
 1256              	.LBB155:
 1257              	.LBB156:
 1258              		.loc 1 502 0 discriminator 1
 1259 0044 0024     		movs	r4, #0
 1260              	.LVL99:
 1261              	.L128:
 1262              		.loc 1 505 0
 1263 0046 2046     		mov	r0, r4
 1264 0048 FFF7FEFF 		bl	get_prox
 1265              	.LVL100:
 1266              		.loc 1 502 0
 1267 004c 0134     		adds	r4, r4, #1
 1268              	.LVL101:
 1269 004e 082C     		cmp	r4, #8
 1270              		.loc 1 505 0
 1271 0050 45F8040F 		str	r0, [r5, #4]!
 1272              		.loc 1 502 0
 1273 0054 F7D1     		bne	.L128
 1274              	.LVL102:
 1275              	.LBE156:
 1276              	.LBE155:
 1277              	.LBB157:
 1278              	.LBB158:
 1279              		.loc 1 513 0
 1280 0056 FFF7FEFF 		bl	VL53L0X_get_dist_mm
 1281              	.LVL103:
 1282 005a 3080     		strh	r0, [r6]	@ movhi
 1283              	.LBE158:
 1284              	.LBE157:
 1285              		.loc 1 437 0
 1286 005c FFF7FEFF 		bl	follow
 1287              	.LVL104:
 1288              	.LBE154:
 1289              		.loc 1 427 0
 1290 0060 EBE7     		b	.L129
 1291              	.L134:
 1292 0062 00BF     		.align	2
 1293              	.L133:
 1294 0064 00000000 		.word	__stack_chk_guard
 1295 0068 00000000 		.word	.LANCHOR1
 1296 006c 00000000 		.word	.LANCHOR2
 1297 0070 00000000 		.word	.LANCHOR3
 1298 0074 00000000 		.word	.LANCHOR4
 1299 0078 FCFFFFFF 		.word	.LANCHOR0-4
 1300              		.cfi_endproc
 1301              	.LFE260:
 1302              		.size	main, .-main
 1303              		.global	__stack_chk_guard
 1304              		.global	Dist_val
 1305              		.global	Prox_vals
 1306              		.global	bus_condvar
 1307              		.global	bus_lock
 1308              		.global	bus
 1309              		.section	.bss.Dist_val,"aw",%nobits
 1310              		.align	1
 1311              		.set	.LANCHOR1,. + 0
ARM GAS  /tmp/ccWdfk1r.s 			page 24


 1312              		.type	Dist_val, %object
 1313              		.size	Dist_val, 2
 1314              	Dist_val:
 1315 0000 0000     		.space	2
 1316              		.section	.bss.Prox_vals,"aw",%nobits
 1317              		.align	2
 1318              		.set	.LANCHOR0,. + 0
 1319              		.type	Prox_vals, %object
 1320              		.size	Prox_vals, 32
 1321              	Prox_vals:
 1322 0000 00000000 		.space	32
 1322      00000000 
 1322      00000000 
 1322      00000000 
 1322      00000000 
 1323              		.section	.bss.bus,"aw",%nobits
 1324              		.align	2
 1325              		.set	.LANCHOR4,. + 0
 1326              		.type	bus, %object
 1327              		.size	bus, 12
 1328              	bus:
 1329 0000 00000000 		.space	12
 1329      00000000 
 1329      00000000 
 1330              		.section	.data.__stack_chk_guard,"aw",%progbits
 1331              		.align	2
 1332              		.type	__stack_chk_guard, %object
 1333              		.size	__stack_chk_guard, 4
 1334              	__stack_chk_guard:
 1335 0000 96E3DEE2 		.word	-488709226
 1336              		.section	.data.bus_condvar,"aw",%progbits
 1337              		.align	2
 1338              		.set	.LANCHOR2,. + 0
 1339              		.type	bus_condvar, %object
 1340              		.size	bus_condvar, 8
 1341              	bus_condvar:
 1342 0000 00000000 		.word	bus_condvar
 1343 0004 00000000 		.word	bus_condvar
 1344              		.section	.data.bus_lock,"aw",%progbits
 1345              		.align	2
 1346              		.set	.LANCHOR3,. + 0
 1347              		.type	bus_lock, %object
 1348              		.size	bus_lock, 20
 1349              	bus_lock:
 1350 0000 00000000 		.word	bus_lock
 1351 0004 00000000 		.word	bus_lock
 1352 0008 00000000 		.word	0
 1353 000c 00000000 		.word	0
 1354 0010 00000000 		.word	0
 1355              		.section	.rodata.__stack_chk_fail.str1.4,"aMS",%progbits,1
 1356              		.align	2
 1357              	.LC0:
 1358 0000 53746163 		.ascii	"Stack smashing detected\000"
 1358      6B20736D 
 1358      61736869 
 1358      6E672064 
 1358      65746563 
ARM GAS  /tmp/ccWdfk1r.s 			page 25


 1359              		.text
 1360              	.Letext0:
 1361              		.file 2 "/home/uos/Documents/Group_1h/Eclipse_e-puck2/Tools/gcc-arm-none-eabi-7-2017-q4-major/arm-
 1362              		.file 3 "/home/uos/Documents/Group_1h/Eclipse_e-puck2/Tools/gcc-arm-none-eabi-7-2017-q4-major/lib/
 1363              		.file 4 "/home/uos/Documents/Group_1h/Eclipse_e-puck2/Tools/gcc-arm-none-eabi-7-2017-q4-major/arm-
 1364              		.file 5 "/home/uos/Documents/Group_1h/Eclipse_e-puck2/Tools/gcc-arm-none-eabi-7-2017-q4-major/arm-
 1365              		.file 6 "/home/uos/Documents/Group_1h/Eclipse_e-puck2/Tools/gcc-arm-none-eabi-7-2017-q4-major/arm-
 1366              		.file 7 "/home/uos/Documents/Group_1h/Eclipse_e-puck2/Tools/gcc-arm-none-eabi-7-2017-q4-major/arm-
 1367              		.file 8 "/home/uos/Documents/Group_1h/Eclipse_e-puck2/Tools/gcc-arm-none-eabi-7-2017-q4-major/arm-
 1368              		.file 9 "/home/uos/Documents/Group_1h/Eclipse_e-puck2/Tools/gcc-arm-none-eabi-7-2017-q4-major/arm-
 1369              		.file 10 "../e-puck2_main-processor/ChibiOS//os/rt/ports/ARMCMx/compilers/GCC/chtypes.h"
 1370              		.file 11 "../e-puck2_main-processor/ChibiOS//os/rt/include/chsystypes.h"
 1371              		.file 12 "../e-puck2_main-processor/ChibiOS//os/rt/include/chschd.h"
 1372              		.file 13 "../e-puck2_main-processor/ChibiOS//os/ext/CMSIS/include/core_cm4.h"
 1373              		.file 14 "../e-puck2_main-processor/ChibiOS//os/ext/CMSIS/ST/system_stm32f4xx.h"
 1374              		.file 15 "../e-puck2_main-processor/ChibiOS//os/ext/CMSIS/ST/stm32f407xx.h"
 1375              		.file 16 "../e-puck2_main-processor/ChibiOS//os/rt/ports/ARMCMx/chcore.h"
 1376              		.file 17 "../e-puck2_main-processor/ChibiOS//os/rt/ports/ARMCMx/chcore_v7m.h"
 1377              		.file 18 "../e-puck2_main-processor/ChibiOS//os/rt/include/chdebug.h"
 1378              		.file 19 "../e-puck2_main-processor/ChibiOS//os/rt/include/chtm.h"
 1379              		.file 20 "../e-puck2_main-processor/ChibiOS//os/rt/include/chstats.h"
 1380              		.file 21 "../e-puck2_main-processor/ChibiOS//os/rt/include/chsem.h"
 1381              		.file 22 "../e-puck2_main-processor/ChibiOS//os/rt/include/chmtx.h"
 1382              		.file 23 "../e-puck2_main-processor/ChibiOS//os/rt/include/chregistry.h"
 1383              		.file 24 "../e-puck2_main-processor/ChibiOS//os/rt/include/chcond.h"
 1384              		.file 25 "../e-puck2_main-processor/ChibiOS//os/rt/include/chevents.h"
 1385              		.file 26 "../e-puck2_main-processor/ChibiOS//os/rt/include/chqueues.h"
 1386              		.file 27 "../e-puck2_main-processor/ChibiOS//os/hal/ports/STM32/STM32F4xx/stm32_dma.h"
 1387              		.file 28 "../e-puck2_main-processor/ChibiOS//os/hal/include/hal_ioblock.h"
 1388              		.file 29 "../e-puck2_main-processor/ChibiOS//os/hal/ports/STM32/LLD/GPIOv2/pal_lld.h"
 1389              		.file 30 "../e-puck2_main-processor/ChibiOS//os/hal/include/adc.h"
 1390              		.file 31 "../e-puck2_main-processor/ChibiOS//os/hal/ports/STM32/STM32F4xx/adc_lld.h"
 1391              		.file 32 "../e-puck2_main-processor/ChibiOS//os/hal/include/can.h"
 1392              		.file 33 "../e-puck2_main-processor/ChibiOS//os/hal/ports/STM32/LLD/can_lld.h"
 1393              		.file 34 "../e-puck2_main-processor/ChibiOS//os/hal/include/dac.h"
 1394              		.file 35 "../e-puck2_main-processor/ChibiOS//os/hal/ports/STM32/LLD/DACv1/dac_lld.h"
 1395              		.file 36 "../e-puck2_main-processor/ChibiOS//os/hal/include/ext.h"
 1396              		.file 37 "../e-puck2_main-processor/ChibiOS//os/hal/ports/STM32/LLD/ext_lld.h"
 1397              		.file 38 "../e-puck2_main-processor/ChibiOS//os/hal/include/gpt.h"
 1398              		.file 39 "../e-puck2_main-processor/ChibiOS//os/hal/ports/STM32/LLD/TIMv1/gpt_lld.h"
 1399              		.file 40 "../e-puck2_main-processor/ChibiOS//os/hal/ports/STM32/LLD/TIMv1/stm32_tim.h"
 1400              		.file 41 "../e-puck2_main-processor/ChibiOS//os/hal/include/i2c.h"
 1401              		.file 42 "../e-puck2_main-processor/ChibiOS//os/hal/ports/STM32/LLD/I2Cv1/i2c_lld.h"
 1402              		.file 43 "../e-puck2_main-processor/ChibiOS//os/hal/include/i2s.h"
 1403              		.file 44 "../e-puck2_main-processor/ChibiOS//os/hal/ports/STM32/LLD/SPIv1/i2s_lld.h"
 1404              		.file 45 "../e-puck2_main-processor/ChibiOS//os/hal/include/pwm.h"
 1405              		.file 46 "../e-puck2_main-processor/ChibiOS//os/hal/ports/STM32/LLD/TIMv1/pwm_lld.h"
 1406              		.file 47 "../e-puck2_main-processor/ChibiOS//os/hal/include/serial.h"
 1407              		.file 48 "../e-puck2_main-processor/ChibiOS//os/hal/ports/STM32/LLD/USARTv1/serial_lld.h"
 1408              		.file 49 "../e-puck2_main-processor/ChibiOS//os/hal/include/sdc.h"
 1409              		.file 50 "../e-puck2_main-processor/ChibiOS//os/hal/ports/STM32/LLD/sdc_lld.h"
 1410              		.file 51 "../e-puck2_main-processor/ChibiOS//os/hal/include/spi.h"
 1411              		.file 52 "../e-puck2_main-processor/ChibiOS//os/hal/ports/STM32/LLD/SPIv1/spi_lld.h"
 1412              		.file 53 "../e-puck2_main-processor/ChibiOS//os/hal/include/usb.h"
 1413              		.file 54 "../e-puck2_main-processor/ChibiOS//os/hal/ports/STM32/LLD/OTGv1/usb_lld.h"
 1414              		.file 55 "../e-puck2_main-processor/ChibiOS//os/hal/ports/STM32/LLD/OTGv1/stm32_otg.h"
 1415              		.file 56 "../e-puck2_main-processor/ChibiOS//os/hal/include/serial_usb.h"
ARM GAS  /tmp/ccWdfk1r.s 			page 26


 1416              		.file 57 "/home/uos/Documents/Group_1h/Eclipse_e-puck2/Tools/gcc-arm-none-eabi-7-2017-q4-major/arm
 1417              		.file 58 "../e-puck2_main-processor/src/msgbus/messagebus.h"
 1418              		.file 59 "../e-puck2_main-processor/src/parameter/parameter.h"
 1419              		.file 60 "./main.h"
 1420              		.file 61 "/home/uos/Documents/Group_1h/Eclipse_e-puck2/Tools/gcc-arm-none-eabi-7-2017-q4-major/arm
 1421              		.file 62 "../e-puck2_main-processor/src/usbcfg.h"
 1422              		.file 63 "../e-puck2_main-processor/src/motors.h"
 1423              		.file 64 "../e-puck2_main-processor/ChibiOS//os/rt/include/chthreads.h"
 1424              		.file 65 "../e-puck2_main-processor/ChibiOS//os/rt/include/chsys.h"
 1425              		.file 66 "../e-puck2_main-processor/src/sensors/proximity.h"
 1426              		.file 67 "../e-puck2_main-processor/src/sensors/VL53L0X/VL53L0X.h"
 1427              		.file 68 "../e-puck2_main-processor/ChibiOS//os/hal/include/hal.h"
 1428              		.file 69 "../e-puck2_main-processor/src/memory_protection.h"
 1429              		.file 70 "../e-puck2_main-processor/src/serial_comm.h"